target datalayout = "e-m:e-p270:32:32-p271:32:32-p272:64:64-i64:64-i128:128-f80:128-n8:16:32:64-S128"
target triple = "x86_64-unknown-linux-gnu"

%"class.Imath_3_2::Vec3" = type { float, float, float }
%"class.std::mutex" = type { %"class.std::__mutex_base" }
%"class.std::__mutex_base" = type { %union.pthread_mutex_t }
%union.pthread_mutex_t = type { %struct.__pthread_mutex_s }
%struct.__pthread_mutex_s = type { i32, i32, i32, i32, i32, i16, i16, %struct.__pthread_internal_list }
%struct.__pthread_internal_list = type { ptr, ptr }
%"class.Imf_3_2::RgbaInputFile::FromYca" = type { %"class.std::mutex", ptr, i8, i32, i32, i32, i32, i32, i32, i32, %"class.Imath_3_2::Vec3", ptr, [29 x ptr], [3 x ptr], ptr, ptr, i64, i64 }

; Function Attrs: mustprogress nounwind uwtable
define linkonce_odr noundef nonnull align 4 dereferenceable(4) ptr @_ZSt3maxIiERKT_S2_S2_(ptr noundef nonnull align 4 dereferenceable(4) %__a, ptr noundef nonnull align 4 dereferenceable(4) %__b) #5 comdat {
entry:
  %retval = alloca ptr, align 8
  %__a.addr = alloca ptr, align 8
  %__b.addr = alloca ptr, align 8
  store ptr %__a, ptr %__a.addr, align 8
  store ptr %__b, ptr %__b.addr, align 8
  %0 = load ptr, ptr %__a.addr, align 8
  %1 = load i32, ptr %0, align 4
  %2 = load ptr, ptr %__b.addr, align 8
  %3 = load i32, ptr %2, align 4
  %cmp = icmp slt i32 %1, %3
  br i1 %cmp, label %if.then, label %if.end

if.then:                                          ; preds = %entry
  %4 = load ptr, ptr %__b.addr, align 8
  store ptr %4, ptr %retval, align 8
  br label %return

if.end:                                           ; preds = %entry
  %5 = load ptr, ptr %__a.addr, align 8
  store ptr %5, ptr %retval, align 8
  br label %return

return:                                           ; preds = %if.end, %if.then
  %6 = load ptr, ptr %retval, align 8
  ret ptr %6
}

; Function Attrs: mustprogress nounwind uwtable
define linkonce_odr noundef nonnull align 4 dereferenceable(4) ptr @_ZSt3minIiERKT_S2_S2_(ptr noundef nonnull align 4 dereferenceable(4) %__a, ptr noundef nonnull align 4 dereferenceable(4) %__b) #5 comdat {
entry:
  %retval = alloca ptr, align 8
  %__a.addr = alloca ptr, align 8
  %__b.addr = alloca ptr, align 8
  store ptr %__a, ptr %__a.addr, align 8
  store ptr %__b, ptr %__b.addr, align 8
  %0 = load ptr, ptr %__b.addr, align 8
  %1 = load i32, ptr %0, align 4
  %2 = load ptr, ptr %__a.addr, align 8
  %3 = load i32, ptr %2, align 4
  %cmp = icmp slt i32 %1, %3
  br i1 %cmp, label %if.then, label %if.end

if.then:                                          ; preds = %entry
  %4 = load ptr, ptr %__b.addr, align 8
  store ptr %4, ptr %retval, align 8
  br label %return

if.end:                                           ; preds = %entry
  %5 = load ptr, ptr %__a.addr, align 8
  store ptr %5, ptr %retval, align 8
  br label %return

return:                                           ; preds = %if.end, %if.then
  %6 = load ptr, ptr %retval, align 8
  ret ptr %6
}

; Function Attrs: mustprogress uwtable
define hidden void @_ZN7Imf_3_213RgbaInputFile7FromYca10readPixelsEii(ptr noundef nonnull align 8 dereferenceable(392) %this, i32 noundef %scanLine1, i32 noundef %scanLine2) #4 align 2 {
entry:
  %this.addr = alloca ptr, align 8
  %scanLine1.addr = alloca i32, align 4
  %scanLine2.addr = alloca i32, align 4
  %minY = alloca i32, align 4
  %maxY = alloca i32, align 4
  %y = alloca i32, align 4
  %y4 = alloca i32, align 4
  store ptr %this, ptr %this.addr, align 8
  store i32 %scanLine1, ptr %scanLine1.addr, align 4
  store i32 %scanLine2, ptr %scanLine2.addr, align 4
  %this1 = load ptr, ptr %this.addr, align 8
  %call = call noundef nonnull align 4 dereferenceable(4) ptr @_ZSt3minIiERKT_S2_S2_(ptr noundef nonnull align 4 dereferenceable(4) %scanLine1.addr, ptr noundef nonnull align 4 dereferenceable(4) %scanLine2.addr)
  %0 = load i32, ptr %call, align 4
  store i32 %0, ptr %minY, align 4
  %call2 = call noundef nonnull align 4 dereferenceable(4) ptr @_ZSt3maxIiERKT_S2_S2_(ptr noundef nonnull align 4 dereferenceable(4) %scanLine1.addr, ptr noundef nonnull align 4 dereferenceable(4) %scanLine2.addr)
  %1 = load i32, ptr %call2, align 4
  store i32 %1, ptr %maxY, align 4
  %_lineOrder = getelementptr inbounds %"class.Imf_3_2::RgbaInputFile::FromYca", ptr %this1, i32 0, i32 9
  %2 = load i32, ptr %_lineOrder, align 4
  %cmp = icmp eq i32 %2, 0
  br i1 %cmp, label %if.then, label %if.else

if.then:                                          ; preds = %entry
  %3 = load i32, ptr %minY, align 4
  store i32 %3, ptr %y, align 4
  br label %for.cond

for.cond:                                         ; preds = %for.inc, %if.then
  %4 = load i32, ptr %y, align 4
  %5 = load i32, ptr %maxY, align 4
  %cmp3 = icmp sle i32 %4, %5
  br i1 %cmp3, label %for.body, label %for.end

for.body:                                         ; preds = %for.cond
  %6 = load i32, ptr %y, align 4
  call void @_ZN7Imf_3_213RgbaInputFile7FromYca10readPixelsEi(ptr noundef nonnull align 8 dereferenceable(392) %this1, i32 noundef %6)
  br label %for.inc

for.inc:                                          ; preds = %for.body
  %7 = load i32, ptr %y, align 4
  %inc = add nsw i32 %7, 1
  store i32 %inc, ptr %y, align 4
  br label %for.cond, !llvm.loop !18

for.end:                                          ; preds = %for.cond
  br label %if.end

if.else:                                          ; preds = %entry
  %8 = load i32, ptr %maxY, align 4
  store i32 %8, ptr %y4, align 4
  br label %for.cond5

for.cond5:                                        ; preds = %for.inc8, %if.else
  %9 = load i32, ptr %y4, align 4
  %10 = load i32, ptr %minY, align 4
  %cmp6 = icmp sge i32 %9, %10
  br i1 %cmp6, label %for.body7, label %for.end9

for.body7:                                        ; preds = %for.cond5
  %11 = load i32, ptr %y4, align 4
  call void @_ZN7Imf_3_213RgbaInputFile7FromYca10readPixelsEi(ptr noundef nonnull align 8 dereferenceable(392) %this1, i32 noundef %11)
  br label %for.inc8

for.inc8:                                         ; preds = %for.body7
  %12 = load i32, ptr %y4, align 4
  %dec = add nsw i32 %12, -1
  store i32 %dec, ptr %y4, align 4
  br label %for.cond5, !llvm.loop !19

for.end9:                                         ; preds = %for.cond5
  br label %if.end

if.end:                                           ; preds = %for.end9, %for.end
  ret void
}