; Function Attrs: mustprogress uwtable
define hidden void @_ZN7Imf_3_213RgbaInputFile7FromYca10readPixelsEii(ptr noundef nonnull align 8 dereferenceable(392) %this, i32 noundef %scanLine1, i32 noundef %scanLine2) local_unnamed_addr #3 align 2 {
entry:
  %.sroa.speculated12 = tail call i32 @llvm.smin.i32(i32 %scanLine2, i32 %scanLine1)
  %.sroa.speculated = tail call i32 @llvm.smax.i32(i32 %scanLine1, i32 %scanLine2)
  %_lineOrder = getelementptr inbounds i8, ptr %this, i64 76
  %0 = load i32, ptr %_lineOrder, align 4
  %cmp = icmp eq i32 %0, 0
  br i1 %cmp, label %for.body, label %for.body7

for.body:                                         ; preds = %entry, %for.body
  %y.021 = phi i32 [ %inc, %for.body ], [ %.sroa.speculated12, %entry ]
  tail call void @_ZN7Imf_3_213RgbaInputFile7FromYca10readPixelsEi(ptr noundef nonnull align 8 dereferenceable(392) %this, i32 noundef %y.021)
  %inc = add i32 %y.021, 1
  %exitcond.not = icmp eq i32 %y.021, %.sroa.speculated
  br i1 %exitcond.not, label %if.end, label %for.body, !llvm.loop !18

for.body7:                                        ; preds = %entry, %for.body7
  %y4.020 = phi i32 [ %dec, %for.body7 ], [ %.sroa.speculated, %entry ]
  tail call void @_ZN7Imf_3_213RgbaInputFile7FromYca10readPixelsEi(ptr noundef nonnull align 8 dereferenceable(392) %this, i32 noundef %y4.020)
  %dec = add nsw i32 %y4.020, -1
  %cmp6.not.not = icmp sgt i32 %y4.020, %.sroa.speculated12
  br i1 %cmp6.not.not, label %for.body7, label %if.end, !llvm.loop !19

if.end:                                           ; preds = %for.body7, %for.body
  ret void
}